; Function Attrs: nounwind uwtable
define internal void @KINBBDPrecFree(ptr noundef readonly captures(none) %0) #0 {
  %2 = getelementptr inbounds nuw i8, ptr %0, i64 496
  %3 = load ptr, ptr %2, align 8, !tbaa !3
  %4 = icmp eq ptr %3, null
  br i1 %4, label %16, label %5

5:                                                ; preds = %1
  %6 = getelementptr inbounds nuw i8, ptr %3, i64 112
  %7 = load ptr, ptr %6, align 8, !tbaa !40
  %8 = icmp eq ptr %7, null
  br i1 %8, label %16, label %9

9:                                                ; preds = %5
  %10 = getelementptr inbounds nuw i8, ptr %7, i64 56
  %11 = load ptr, ptr %10, align 8, !tbaa !33
  tail call void @N_VDestroy(ptr noundef %11) #5
  %12 = getelementptr inbounds nuw i8, ptr %7, i64 64
  %13 = load ptr, ptr %12, align 8, !tbaa !31
  tail call void @DestroyMat(ptr noundef %13) #5
  %14 = getelementptr inbounds nuw i8, ptr %7, i64 72
  %15 = load ptr, ptr %14, align 8, !tbaa !32
  tail call void @DestroyArray(ptr noundef %15) #5
  tail call void @free(ptr noundef nonnull %7) #5
  br label %16

16:                                               ; preds = %5, %1, %9
  ret void
}